target datalayout = "e-m:e-p270:32:32-p271:32:32-p272:64:64-i64:64-i128:128-f80:128-n8:16:32:64-S128"
target triple = "x86_64-pc-linux-gnu"

; Function Attrs: inlinehint nounwind uwtable
define internal zeroext i8 @dither_lo(i8 noundef zeroext %0) #2 {
  %2 = alloca i8, align 1
  store i8 %0, ptr %2, align 1, !tbaa !12
  %3 = load i8, ptr %2, align 1, !tbaa !12
  %4 = zext i8 %3 to i32
  %5 = and i32 %4, 15
  %6 = load i8, ptr %2, align 1, !tbaa !12
  %7 = zext i8 %6 to i32
  %8 = shl i32 %7, 4
  %9 = or i32 %5, %8
  %10 = trunc i32 %9 to i8
  ret i8 %10
}

; Function Attrs: inlinehint nounwind uwtable
define internal zeroext i8 @multiply(i8 noundef zeroext %0, i32 noundef %1) #2 {
  %3 = alloca i8, align 1
  %4 = alloca i32, align 4
  store i8 %0, ptr %3, align 1, !tbaa !12
  store i32 %1, ptr %4, align 4, !tbaa !8
  %5 = load i8, ptr %3, align 1, !tbaa !12
  %6 = zext i8 %5 to i32
  %7 = load i32, ptr %4, align 4, !tbaa !8
  %8 = mul i32 %6, %7
  %9 = lshr i32 %8, 16
  %10 = trunc i32 %9 to i8
  ret i8 %10
}

; Function Attrs: inlinehint nounwind uwtable
define internal zeroext i8 @dither_hi(i8 noundef zeroext %0) #2 {
  %2 = alloca i8, align 1
  store i8 %0, ptr %2, align 1, !tbaa !12
  %3 = load i8, ptr %2, align 1, !tbaa !12
  %4 = zext i8 %3 to i32
  %5 = and i32 %4, 240
  %6 = load i8, ptr %2, align 1, !tbaa !12
  %7 = zext i8 %6 to i32
  %8 = ashr i32 %7, 4
  %9 = or i32 %5, %8
  %10 = trunc i32 %9 to i8
  ret i8 %10
}

; Function Attrs: inlinehint nounwind uwtable
define internal void @ApplyAlphaMultiply4444_C(ptr noundef %0, i32 noundef %1, i32 noundef %2, i32 noundef %3, i32 noundef %4) #2 {
  %6 = alloca ptr, align 8
  %7 = alloca i32, align 4
  %8 = alloca i32, align 4
  %9 = alloca i32, align 4
  %10 = alloca i32, align 4
  %11 = alloca i32, align 4
  %12 = alloca i32, align 4
  %13 = alloca i32, align 4
  %14 = alloca i8, align 1
  %15 = alloca i32, align 4
  %16 = alloca i8, align 1
  %17 = alloca i8, align 1
  %18 = alloca i8, align 1
  store ptr %0, ptr %6, align 8, !tbaa !13
  store i32 %1, ptr %7, align 4, !tbaa !8
  store i32 %2, ptr %8, align 4, !tbaa !8
  store i32 %3, ptr %9, align 4, !tbaa !8
  store i32 %4, ptr %10, align 4, !tbaa !8
  br label %19

19:                                               ; preds = %103, %5
  %20 = load i32, ptr %8, align 4, !tbaa !8
  %21 = add nsw i32 %20, -1
  store i32 %21, ptr %8, align 4, !tbaa !8
  %22 = icmp sgt i32 %20, 0
  br i1 %22, label %23, label %108

23:                                               ; preds = %19
  call void @llvm.lifetime.start.p0(i64 4, ptr %11) #5
  store i32 0, ptr %11, align 4, !tbaa !8
  br label %24

24:                                               ; preds = %100, %23
  %25 = load i32, ptr %11, align 4, !tbaa !8
  %26 = load i32, ptr %7, align 4, !tbaa !8
  %27 = icmp slt i32 %25, %26
  br i1 %27, label %28, label %103

28:                                               ; preds = %24
  call void @llvm.lifetime.start.p0(i64 4, ptr %12) #5
  %29 = load ptr, ptr %6, align 8, !tbaa !13
  %30 = load i32, ptr %11, align 4, !tbaa !8
  %31 = mul nsw i32 2, %30
  %32 = load i32, ptr %10, align 4, !tbaa !8
  %33 = add nsw i32 %31, %32
  %34 = sext i32 %33 to i64
  %35 = getelementptr inbounds i8, ptr %29, i64 %34
  %36 = load i8, ptr %35, align 1, !tbaa !12
  %37 = zext i8 %36 to i32
  store i32 %37, ptr %12, align 4, !tbaa !8
  call void @llvm.lifetime.start.p0(i64 4, ptr %13) #5
  %38 = load ptr, ptr %6, align 8, !tbaa !13
  %39 = load i32, ptr %11, align 4, !tbaa !8
  %40 = mul nsw i32 2, %39
  %41 = load i32, ptr %10, align 4, !tbaa !8
  %42 = xor i32 %41, 1
  %43 = add nsw i32 %40, %42
  %44 = sext i32 %43 to i64
  %45 = getelementptr inbounds i8, ptr %38, i64 %44
  %46 = load i8, ptr %45, align 1, !tbaa !12
  %47 = zext i8 %46 to i32
  store i32 %47, ptr %13, align 4, !tbaa !8
  call void @llvm.lifetime.start.p0(i64 1, ptr %14) #5
  %48 = load i32, ptr %13, align 4, !tbaa !8
  %49 = and i32 %48, 15
  %50 = trunc i32 %49 to i8
  store i8 %50, ptr %14, align 1, !tbaa !12
  call void @llvm.lifetime.start.p0(i64 4, ptr %15) #5
  %51 = load i8, ptr %14, align 1, !tbaa !12
  %52 = zext i8 %51 to i32
  %53 = mul nsw i32 %52, 4369
  store i32 %53, ptr %15, align 4, !tbaa !8
  call void @llvm.lifetime.start.p0(i64 1, ptr %16) #5
  %54 = load i32, ptr %12, align 4, !tbaa !8
  %55 = trunc i32 %54 to i8
  %56 = call zeroext i8 @dither_hi(i8 noundef zeroext %55)
  %57 = load i32, ptr %15, align 4, !tbaa !8
  %58 = call zeroext i8 @multiply(i8 noundef zeroext %56, i32 noundef %57)
  store i8 %58, ptr %16, align 1, !tbaa !12
  call void @llvm.lifetime.start.p0(i64 1, ptr %17) #5
  %59 = load i32, ptr %12, align 4, !tbaa !8
  %60 = trunc i32 %59 to i8
  %61 = call zeroext i8 @dither_lo(i8 noundef zeroext %60)
  %62 = load i32, ptr %15, align 4, !tbaa !8
  %63 = call zeroext i8 @multiply(i8 noundef zeroext %61, i32 noundef %62)
  store i8 %63, ptr %17, align 1, !tbaa !12
  call void @llvm.lifetime.start.p0(i64 1, ptr %18) #5
  %64 = load i32, ptr %13, align 4, !tbaa !8
  %65 = trunc i32 %64 to i8
  %66 = call zeroext i8 @dither_hi(i8 noundef zeroext %65)
  %67 = load i32, ptr %15, align 4, !tbaa !8
  %68 = call zeroext i8 @multiply(i8 noundef zeroext %66, i32 noundef %67)
  store i8 %68, ptr %18, align 1, !tbaa !12
  %69 = load i8, ptr %16, align 1, !tbaa !12
  %70 = zext i8 %69 to i32
  %71 = and i32 %70, 240
  %72 = load i8, ptr %17, align 1, !tbaa !12
  %73 = zext i8 %72 to i32
  %74 = ashr i32 %73, 4
  %75 = and i32 %74, 15
  %76 = or i32 %71, %75
  %77 = trunc i32 %76 to i8
  %78 = load ptr, ptr %6, align 8, !tbaa !13
  %79 = load i32, ptr %11, align 4, !tbaa !8
  %80 = mul nsw i32 2, %79
  %81 = load i32, ptr %10, align 4, !tbaa !8
  %82 = add nsw i32 %80, %81
  %83 = sext i32 %82 to i64
  %84 = getelementptr inbounds i8, ptr %78, i64 %83
  store i8 %77, ptr %84, align 1, !tbaa !12
  %85 = load i8, ptr %18, align 1, !tbaa !12
  %86 = zext i8 %85 to i32
  %87 = and i32 %86, 240
  %88 = load i8, ptr %14, align 1, !tbaa !12
  %89 = zext i8 %88 to i32
  %90 = or i32 %87, %89
  %91 = trunc i32 %90 to i8
  %92 = load ptr, ptr %6, align 8, !tbaa !13
  %93 = load i32, ptr %11, align 4, !tbaa !8
  %94 = mul nsw i32 2, %93
  %95 = load i32, ptr %10, align 4, !tbaa !8
  %96 = xor i32 %95, 1
  %97 = add nsw i32 %94, %96
  %98 = sext i32 %97 to i64
  %99 = getelementptr inbounds i8, ptr %92, i64 %98
  store i8 %91, ptr %99, align 1, !tbaa !12
  call void @llvm.lifetime.end.p0(i64 1, ptr %18) #5
  call void @llvm.lifetime.end.p0(i64 1, ptr %17) #5
  call void @llvm.lifetime.end.p0(i64 1, ptr %16) #5
  call void @llvm.lifetime.end.p0(i64 4, ptr %15) #5
  call void @llvm.lifetime.end.p0(i64 1, ptr %14) #5
  call void @llvm.lifetime.end.p0(i64 4, ptr %13) #5
  call void @llvm.lifetime.end.p0(i64 4, ptr %12) #5
  br label %100

100:                                              ; preds = %28
  %101 = load i32, ptr %11, align 4, !tbaa !8
  %102 = add nsw i32 %101, 1
  store i32 %102, ptr %11, align 4, !tbaa !8
  br label %24, !llvm.loop !32

103:                                              ; preds = %24
  %104 = load i32, ptr %9, align 4, !tbaa !8
  %105 = load ptr, ptr %6, align 8, !tbaa !13
  %106 = sext i32 %104 to i64
  %107 = getelementptr inbounds i8, ptr %105, i64 %106
  store ptr %107, ptr %6, align 8, !tbaa !13
  call void @llvm.lifetime.end.p0(i64 4, ptr %11) #5
  br label %19, !llvm.loop !33

108:                                              ; preds = %19
  ret void
}

; Function Attrs: nounwind uwtable
define internal void @ApplyAlphaMultiply_16b_C(ptr noundef %0, i32 noundef %1, i32 noundef %2, i32 noundef %3) #0 {
  %5 = alloca ptr, align 8
  %6 = alloca i32, align 4
  %7 = alloca i32, align 4
  %8 = alloca i32, align 4
  store ptr %0, ptr %5, align 8, !tbaa !13
  store i32 %1, ptr %6, align 4, !tbaa !8
  store i32 %2, ptr %7, align 4, !tbaa !8
  store i32 %3, ptr %8, align 4, !tbaa !8
  %9 = load ptr, ptr %5, align 8, !tbaa !13
  %10 = load i32, ptr %6, align 4, !tbaa !8
  %11 = load i32, ptr %7, align 4, !tbaa !8
  %12 = load i32, ptr %8, align 4, !tbaa !8
  call void @ApplyAlphaMultiply4444_C(ptr noundef %9, i32 noundef %10, i32 noundef %11, i32 noundef %12, i32 noundef 0)
  ret void
}