; Function Attrs: nofree norecurse nosync nounwind memory(argmem: readwrite) uwtable
define internal void @ApplyAlphaMultiply_16b_C(ptr noundef captures(none) %0, i32 noundef %1, i32 noundef %2, i32 noundef %3) #0 {
  %5 = icmp sgt i32 %2, 0
  br i1 %5, label %.preheader.lr.ph.i, label %ApplyAlphaMultiply4444_C.exit

.preheader.lr.ph.i:                               ; preds = %4
  %6 = icmp sgt i32 %1, 0
  %7 = sext i32 %3 to i64
  br i1 %6, label %.preheader.us.preheader.i, label %ApplyAlphaMultiply4444_C.exit

.preheader.us.preheader.i:                        ; preds = %.preheader.lr.ph.i
  %wide.trip.count.i = zext nneg i32 %1 to i64
  br label %.preheader.us.i

.preheader.us.i:                                  ; preds = %._crit_edge.us.i, %.preheader.us.preheader.i
  %.in.i = phi i32 [ %42, %._crit_edge.us.i ], [ %2, %.preheader.us.preheader.i ]
  %.032.us.i = phi ptr [ %43, %._crit_edge.us.i ], [ %0, %.preheader.us.preheader.i ]
  br label %8

8:                                                ; preds = %8, %.preheader.us.i
  %indvars.iv.i = phi i64 [ 0, %.preheader.us.i ], [ %indvars.iv.next.i, %8 ]
  %9 = shl nuw nsw i64 %indvars.iv.i, 1
  %10 = getelementptr inbounds nuw i8, ptr %.032.us.i, i64 %9
  %11 = load i8, ptr %10, align 1, !tbaa !9
  %12 = or disjoint i64 %9, 1
  %13 = getelementptr inbounds nuw i8, ptr %.032.us.i, i64 %12
  %14 = load i8, ptr %13, align 1, !tbaa !9
  %15 = and i8 %14, 15
  %16 = zext nneg i8 %15 to i32
  %17 = mul nuw nsw i32 %16, 4369
  %18 = and i8 %11, -16
  %19 = lshr i8 %11, 4
  %20 = or disjoint i8 %18, %19
  %21 = zext i8 %20 to i32
  %22 = mul nuw nsw i32 %17, %21
  %23 = lshr i32 %22, 16
  %24 = trunc nuw i32 %23 to i8
  %25 = and i8 %11, 15
  %26 = shl i8 %11, 4
  %27 = or disjoint i8 %25, %26
  %28 = zext i8 %27 to i32
  %29 = mul nuw nsw i32 %17, %28
  %30 = and i8 %14, -16
  %31 = lshr i8 %14, 4
  %32 = or disjoint i8 %30, %31
  %33 = zext i8 %32 to i32
  %34 = mul nuw nsw i32 %17, %33
  %35 = lshr i32 %34, 16
  %36 = trunc nuw i32 %35 to i8
  %37 = and i8 %24, -16
  %sum.shift.us.i = lshr i32 %29, 20
  %38 = trunc nuw nsw i32 %sum.shift.us.i to i8
  %39 = or disjoint i8 %37, %38
  store i8 %39, ptr %10, align 1, !tbaa !9
  %40 = and i8 %36, -16
  %41 = or disjoint i8 %40, %15
  store i8 %41, ptr %13, align 1, !tbaa !9
  %indvars.iv.next.i = add nuw nsw i64 %indvars.iv.i, 1
  %exitcond.not.i = icmp eq i64 %indvars.iv.next.i, %wide.trip.count.i
  br i1 %exitcond.not.i, label %._crit_edge.us.i, label %8, !llvm.loop !15

._crit_edge.us.i:                                 ; preds = %8
  %42 = add nsw i32 %.in.i, -1
  %43 = getelementptr inbounds i8, ptr %.032.us.i, i64 %7
  %44 = icmp sgt i32 %.in.i, 1
  br i1 %44, label %.preheader.us.i, label %ApplyAlphaMultiply4444_C.exit, !llvm.loop !16

ApplyAlphaMultiply4444_C.exit:                    ; preds = %._crit_edge.us.i, %4, %.preheader.lr.ph.i
  ret void
}